; Function Attrs: mustprogress nounwind uwtable
define hidden noundef zeroext i1 @_ZNK11TypeInstPtr25is_java_subtype_of_helperEPK10TypeOopPtrbb(ptr noundef nonnull align 8 dereferenceable(80) %0, ptr noundef %1, i1 zeroext %2, i1 noundef zeroext %3) unnamed_addr #0 align 2 {
  %5 = load ptr, ptr %0, align 8
  %6 = getelementptr inbounds i8, ptr %5, i64 264
  %7 = load ptr, ptr %6, align 8
  %8 = tail call noundef zeroext i1 %7(ptr noundef nonnull align 8 dereferenceable(80) %0) #17
  br i1 %8, label %9, label %_ZN7TypePtr38is_java_subtype_of_helper_for_instanceI11TypeInstPtr10TypeOopPtrEEbPKT_PKT0_bb.exit

9:                                                ; preds = %4
  %10 = load ptr, ptr %1, align 8
  %11 = getelementptr inbounds i8, ptr %10, i64 264
  %12 = load ptr, ptr %11, align 8
  %13 = tail call noundef zeroext i1 %12(ptr noundef nonnull align 8 dereferenceable(80) %1) #17
  br i1 %13, label %14, label %_ZN7TypePtr38is_java_subtype_of_helper_for_instanceI11TypeInstPtr10TypeOopPtrEEbPKT_PKT0_bb.exit

14:                                               ; preds = %9
  %15 = getelementptr inbounds i8, ptr %1, i64 16
  %16 = load i32, ptr %15, align 8
  %17 = icmp eq i32 %16, 21
  %brmerge.not.i = and i1 %17, %3
  br i1 %brmerge.not.i, label %18, label %_ZN7TypePtr38is_java_subtype_of_helper_for_instanceI11TypeInstPtr10TypeOopPtrEEbPKT_PKT0_bb.exit

18:                                               ; preds = %14
  %19 = load ptr, ptr %1, align 8
  %20 = getelementptr inbounds i8, ptr %19, i64 232
  %21 = load ptr, ptr %20, align 8
  %22 = tail call noundef ptr %21(ptr noundef nonnull align 8 dereferenceable(80) %1) #17
  %23 = load ptr, ptr @_ZN5ciEnv13_Object_klassE, align 8
  %24 = icmp eq ptr %22, %23
  br i1 %24, label %25, label %32

25:                                               ; preds = %18
  %26 = getelementptr inbounds i8, ptr %1, i64 64
  %27 = load ptr, ptr %26, align 8
  %28 = load ptr, ptr %27, align 8
  %29 = getelementptr inbounds i8, ptr %28, i64 72
  %30 = load ptr, ptr %29, align 8
  %31 = tail call noundef zeroext i1 %30(ptr noundef nonnull align 8 dereferenceable(64) %27) #17
  br i1 %31, label %_ZN7TypePtr38is_java_subtype_of_helper_for_instanceI11TypeInstPtr10TypeOopPtrEEbPKT_PKT0_bb.exit, label %32

32:                                               ; preds = %25, %18
  %33 = load ptr, ptr %0, align 8
  %34 = getelementptr inbounds i8, ptr %33, i64 232
  %35 = load ptr, ptr %34, align 8
  %36 = tail call noundef ptr %35(ptr noundef nonnull align 8 dereferenceable(80) %0) #17
  %37 = load ptr, ptr %1, align 8
  %38 = getelementptr inbounds i8, ptr %37, i64 232
  %39 = load ptr, ptr %38, align 8
  %40 = tail call noundef ptr %39(ptr noundef nonnull align 8 dereferenceable(80) %1) #17
  %41 = tail call noundef zeroext i1 @_ZN7ciKlass13is_subtype_ofEPS_(ptr noundef nonnull align 8 dereferenceable(44) %36, ptr noundef %40) #17
  br i1 %41, label %42, label %_ZN7TypePtr38is_java_subtype_of_helper_for_instanceI11TypeInstPtr10TypeOopPtrEEbPKT_PKT0_bb.exit

42:                                               ; preds = %32
  %43 = getelementptr inbounds i8, ptr %0, i64 64
  %44 = load ptr, ptr %43, align 8
  %45 = getelementptr inbounds i8, ptr %1, i64 64
  %46 = load ptr, ptr %45, align 8
  %47 = tail call noundef ptr @_ZNK14TypeInterfaces17intersection_withEPKS_(ptr noundef nonnull align 8 dereferenceable(64) %44, ptr noundef %46)
  %48 = load ptr, ptr %47, align 8
  %49 = load ptr, ptr %48, align 8
  %50 = tail call noundef zeroext i1 %49(ptr noundef nonnull align 8 dereferenceable(64) %47, ptr noundef %46) #17
  br label %_ZN7TypePtr38is_java_subtype_of_helper_for_instanceI11TypeInstPtr10TypeOopPtrEEbPKT_PKT0_bb.exit

_ZN7TypePtr38is_java_subtype_of_helper_for_instanceI11TypeInstPtr10TypeOopPtrEEbPKT_PKT0_bb.exit: ; preds = %4, %9, %14, %25, %32, %42
  %.0.i = phi i1 [ false, %9 ], [ false, %4 ], [ false, %14 ], [ true, %25 ], [ false, %32 ], [ %50, %42 ]
  ret i1 %.0.i
}